target datalayout = "e-m:e-p270:32:32-p271:32:32-p272:64:64-i64:64-i128:128-f80:128-n8:16:32:64-S128"
target triple = "x86_64-pc-linux-gnu"

%struct.RangeBound = type { i64, i8, i8, i8 }
%struct.FunctionCallInfoBaseData = type { ptr, ptr, ptr, i32, i8, i16, [0 x %struct.NullableDatum] }
%struct.NullableDatum = type { i64, i8 }
%struct.RangeIOData = type { ptr, %struct.FmgrInfo, i32 }
%struct.FmgrInfo = type { ptr, i32, i16, i8, i8, i8, ptr, ptr, ptr }
%struct.RangeType = type { i32, i32 }
%struct.anon = type { i32, [0 x i8] }
%struct.StringInfoData = type { ptr, i32, i32, i32 }

@.str.21 = private unnamed_addr constant [6 x i8] c"empty\00", align 1

; Function Attrs: inlinehint nounwind uwtable
define internal i64 @PointerGetDatum(ptr noundef %0) #2 {
  %2 = alloca ptr, align 8
  store ptr %0, ptr %2, align 8
  %3 = load ptr, ptr %2, align 8
  %4 = ptrtoint ptr %3 to i64
  ret i64 %4
}

; Function Attrs: inlinehint nounwind uwtable
define internal ptr @DatumGetPointer(i64 noundef %0) #2 {
  %2 = alloca i64, align 8
  store i64 %0, ptr %2, align 8
  %3 = load i64, ptr %2, align 8
  %4 = inttoptr i64 %3 to ptr
  ret ptr %4
}

; Function Attrs: inlinehint nounwind uwtable
define internal i64 @CStringGetDatum(ptr noundef %0) #2 {
  %2 = alloca ptr, align 8
  store ptr %0, ptr %2, align 8
  %3 = load ptr, ptr %2, align 8
  %4 = call i64 @PointerGetDatum(ptr noundef %3)
  ret i64 %4
}

; Function Attrs: nounwind uwtable
define internal ptr @range_deparse(i8 noundef signext %0, ptr noundef %1, ptr noundef %2) #0 {
  %4 = alloca ptr, align 8
  %5 = alloca i8, align 1
  %6 = alloca ptr, align 8
  %7 = alloca ptr, align 8
  %8 = alloca %struct.StringInfoData, align 8
  %9 = alloca i32, align 4
  store i8 %0, ptr %5, align 1
  store ptr %1, ptr %6, align 8
  store ptr %2, ptr %7, align 8
  call void @llvm.lifetime.start.p0(i64 24, ptr %8) #10
  %10 = load i8, ptr %5, align 1
  %11 = sext i8 %10 to i32
  %12 = and i32 %11, 1
  %13 = icmp ne i32 %12, 0
  br i1 %13, label %14, label %16

14:                                               ; preds = %3
  %15 = call ptr @pstrdup(ptr noundef @.str.21)
  store ptr %15, ptr %4, align 8
  store i32 1, ptr %9, align 4
  br label %47

16:                                               ; preds = %3
  call void @initStringInfo(ptr noundef %8)
  %17 = load i8, ptr %5, align 1
  %18 = sext i8 %17 to i32
  %19 = and i32 %18, 2
  %20 = icmp ne i32 %19, 0
  %21 = select i1 %20, i32 91, i32 40
  %22 = trunc i32 %21 to i8
  call void @appendStringInfoChar(ptr noundef %8, i8 noundef signext %22)
  %23 = load i8, ptr %5, align 1
  %24 = sext i8 %23 to i32
  %25 = and i32 %24, 41
  %26 = icmp ne i32 %25, 0
  br i1 %26, label %30, label %27

27:                                               ; preds = %16
  %28 = load ptr, ptr %6, align 8
  %29 = call ptr @range_bound_escape(ptr noundef %28)
  call void @appendStringInfoString(ptr noundef %8, ptr noundef %29)
  br label %30

30:                                               ; preds = %27, %16
  call void @appendStringInfoChar(ptr noundef %8, i8 noundef signext 44)
  %31 = load i8, ptr %5, align 1
  %32 = sext i8 %31 to i32
  %33 = and i32 %32, 81
  %34 = icmp ne i32 %33, 0
  br i1 %34, label %38, label %35

35:                                               ; preds = %30
  %36 = load ptr, ptr %7, align 8
  %37 = call ptr @range_bound_escape(ptr noundef %36)
  call void @appendStringInfoString(ptr noundef %8, ptr noundef %37)
  br label %38

38:                                               ; preds = %35, %30
  %39 = load i8, ptr %5, align 1
  %40 = sext i8 %39 to i32
  %41 = and i32 %40, 4
  %42 = icmp ne i32 %41, 0
  %43 = select i1 %42, i32 93, i32 41
  %44 = trunc i32 %43 to i8
  call void @appendStringInfoChar(ptr noundef %8, i8 noundef signext %44)
  %45 = getelementptr inbounds nuw %struct.StringInfoData, ptr %8, i32 0, i32 0
  %46 = load ptr, ptr %45, align 8
  store ptr %46, ptr %4, align 8
  store i32 1, ptr %9, align 4
  br label %47

47:                                               ; preds = %38, %14
  call void @llvm.lifetime.end.p0(i64 24, ptr %8) #10
  %48 = load ptr, ptr %4, align 8
  ret ptr %48
}

; Function Attrs: nounwind uwtable
define dso_local signext i8 @range_get_flags(ptr noundef %0) #0 {
  %2 = alloca ptr, align 8
  store ptr %0, ptr %2, align 8
  %3 = load ptr, ptr %2, align 8
  %4 = load ptr, ptr %2, align 8
  %5 = getelementptr inbounds nuw %struct.anon, ptr %4, i32 0, i32 0
  %6 = load i32, ptr %5, align 4
  %7 = lshr i32 %6, 2
  %8 = and i32 %7, 1073741823
  %9 = zext i32 %8 to i64
  %10 = getelementptr inbounds nuw i8, ptr %3, i64 %9
  %11 = getelementptr inbounds i8, ptr %10, i64 -1
  %12 = load i8, ptr %11, align 1
  ret i8 %12
}

; Function Attrs: inlinehint nounwind uwtable
define internal ptr @DatumGetRangeTypeP(i64 noundef %0) #2 {
  %2 = alloca i64, align 8
  store i64 %0, ptr %2, align 8
  %3 = load i64, ptr %2, align 8
  %4 = call ptr @DatumGetPointer(i64 noundef %3)
  %5 = call ptr @pg_detoast_datum(ptr noundef %4)
  ret ptr %5
}

; Function Attrs: nounwind uwtable
define dso_local i64 @range_out(ptr noundef %0) #0 {
  %2 = alloca ptr, align 8
  %3 = alloca ptr, align 8
  %4 = alloca ptr, align 8
  %5 = alloca ptr, align 8
  %6 = alloca i8, align 1
  %7 = alloca ptr, align 8
  %8 = alloca ptr, align 8
  %9 = alloca %struct.RangeBound, align 8
  %10 = alloca %struct.RangeBound, align 8
  %11 = alloca i8, align 1
  store ptr %0, ptr %2, align 8
  call void @llvm.lifetime.start.p0(i64 8, ptr %3) #10
  %12 = load ptr, ptr %2, align 8
  %13 = getelementptr inbounds nuw %struct.FunctionCallInfoBaseData, ptr %12, i32 0, i32 6
  %14 = getelementptr inbounds [0 x %struct.NullableDatum], ptr %13, i64 0, i64 0
  %15 = getelementptr inbounds nuw %struct.NullableDatum, ptr %14, i32 0, i32 0
  %16 = load i64, ptr %15, align 8
  %17 = call ptr @DatumGetRangeTypeP(i64 noundef %16)
  store ptr %17, ptr %3, align 8
  call void @llvm.lifetime.start.p0(i64 8, ptr %4) #10
  call void @llvm.lifetime.start.p0(i64 8, ptr %5) #10
  call void @llvm.lifetime.start.p0(i64 1, ptr %6) #10
  call void @llvm.lifetime.start.p0(i64 8, ptr %7) #10
  store ptr null, ptr %7, align 8
  call void @llvm.lifetime.start.p0(i64 8, ptr %8) #10
  store ptr null, ptr %8, align 8
  call void @llvm.lifetime.start.p0(i64 16, ptr %9) #10
  call void @llvm.lifetime.start.p0(i64 16, ptr %10) #10
  call void @llvm.lifetime.start.p0(i64 1, ptr %11) #10
  call void @check_stack_depth()
  %18 = load ptr, ptr %2, align 8
  %19 = load ptr, ptr %3, align 8
  %20 = getelementptr inbounds nuw %struct.RangeType, ptr %19, i32 0, i32 1
  %21 = load i32, ptr %20, align 4
  %22 = call ptr @get_range_io_data(ptr noundef %18, i32 noundef %21, i32 noundef 1)
  store ptr %22, ptr %5, align 8
  %23 = load ptr, ptr %5, align 8
  %24 = getelementptr inbounds nuw %struct.RangeIOData, ptr %23, i32 0, i32 0
  %25 = load ptr, ptr %24, align 8
  %26 = load ptr, ptr %3, align 8
  call void @range_deserialize(ptr noundef %25, ptr noundef %26, ptr noundef %9, ptr noundef %10, ptr noundef %11)
  %27 = load ptr, ptr %3, align 8
  %28 = call signext i8 @range_get_flags(ptr noundef %27)
  store i8 %28, ptr %6, align 1
  %29 = load i8, ptr %6, align 1
  %30 = sext i8 %29 to i32
  %31 = and i32 %30, 41
  %32 = icmp ne i32 %31, 0
  br i1 %32, label %39, label %33

33:                                               ; preds = %1
  %34 = load ptr, ptr %5, align 8
  %35 = getelementptr inbounds nuw %struct.RangeIOData, ptr %34, i32 0, i32 1
  %36 = getelementptr inbounds nuw %struct.RangeBound, ptr %9, i32 0, i32 0
  %37 = load i64, ptr %36, align 8
  %38 = call ptr @OutputFunctionCall(ptr noundef %35, i64 noundef %37)
  store ptr %38, ptr %7, align 8
  br label %39

39:                                               ; preds = %33, %1
  %40 = load i8, ptr %6, align 1
  %41 = sext i8 %40 to i32
  %42 = and i32 %41, 81
  %43 = icmp ne i32 %42, 0
  br i1 %43, label %50, label %44

44:                                               ; preds = %39
  %45 = load ptr, ptr %5, align 8
  %46 = getelementptr inbounds nuw %struct.RangeIOData, ptr %45, i32 0, i32 1
  %47 = getelementptr inbounds nuw %struct.RangeBound, ptr %10, i32 0, i32 0
  %48 = load i64, ptr %47, align 8
  %49 = call ptr @OutputFunctionCall(ptr noundef %46, i64 noundef %48)
  store ptr %49, ptr %8, align 8
  br label %50

50:                                               ; preds = %44, %39
  %51 = load i8, ptr %6, align 1
  %52 = load ptr, ptr %7, align 8
  %53 = load ptr, ptr %8, align 8
  %54 = call ptr @range_deparse(i8 noundef signext %51, ptr noundef %52, ptr noundef %53)
  store ptr %54, ptr %4, align 8
  %55 = load ptr, ptr %4, align 8
  %56 = call i64 @CStringGetDatum(ptr noundef %55)
  call void @llvm.lifetime.end.p0(i64 1, ptr %11) #10
  call void @llvm.lifetime.end.p0(i64 16, ptr %10) #10
  call void @llvm.lifetime.end.p0(i64 16, ptr %9) #10
  call void @llvm.lifetime.end.p0(i64 8, ptr %8) #10
  call void @llvm.lifetime.end.p0(i64 8, ptr %7) #10
  call void @llvm.lifetime.end.p0(i64 1, ptr %6) #10
  call void @llvm.lifetime.end.p0(i64 8, ptr %5) #10
  call void @llvm.lifetime.end.p0(i64 8, ptr %4) #10
  call void @llvm.lifetime.end.p0(i64 8, ptr %3) #10
  ret i64 %56
}