; Function Attrs: nounwind uwtable
define dso_local i64 @range_out(ptr noundef readonly captures(none) %0) local_unnamed_addr #0 {
  %2 = alloca %struct.StringInfoData, align 8
  %3 = alloca %struct.RangeBound, align 8
  %4 = alloca %struct.RangeBound, align 8
  %5 = alloca i8, align 1
  %6 = getelementptr inbounds nuw i8, ptr %0, i64 32
  %7 = load i64, ptr %6, align 8
  %8 = inttoptr i64 %7 to ptr
  %9 = tail call ptr @pg_detoast_datum(ptr noundef %8) #14
  call void @llvm.lifetime.start.p0(i64 16, ptr nonnull %3) #14
  call void @llvm.lifetime.start.p0(i64 16, ptr nonnull %4) #14
  call void @llvm.lifetime.start.p0(i64 1, ptr nonnull %5) #14
  tail call void @check_stack_depth() #14
  %10 = getelementptr inbounds nuw i8, ptr %9, i64 4
  %11 = load i32, ptr %10, align 4
  %12 = tail call fastcc ptr @get_range_io_data(ptr noundef %0, i32 noundef %11, i32 noundef 1)
  %13 = load ptr, ptr %12, align 8
  call void @range_deserialize(ptr noundef %13, ptr noundef %9, ptr noundef nonnull %3, ptr noundef nonnull %4, ptr noundef nonnull %5)
  %14 = load i32, ptr %9, align 4
  %15 = lshr i32 %14, 2
  %16 = zext nneg i32 %15 to i64
  %17 = getelementptr inbounds nuw i8, ptr %9, i64 %16
  %18 = getelementptr inbounds i8, ptr %17, i64 -1
  %19 = load i8, ptr %18, align 1
  %20 = and i8 %19, 41
  %.not = icmp eq i8 %20, 0
  br i1 %.not, label %21, label %25

21:                                               ; preds = %1
  %22 = getelementptr inbounds nuw i8, ptr %12, i64 8
  %23 = load i64, ptr %3, align 8
  %24 = tail call ptr @OutputFunctionCall(ptr noundef nonnull %22, i64 noundef %23) #14
  br label %25

25:                                               ; preds = %21, %1
  %.013 = phi ptr [ null, %1 ], [ %24, %21 ]
  %26 = and i8 %19, 81
  %.not14 = icmp eq i8 %26, 0
  br i1 %.not14, label %27, label %31

27:                                               ; preds = %25
  %28 = getelementptr inbounds nuw i8, ptr %12, i64 8
  %29 = load i64, ptr %4, align 8
  %30 = tail call ptr @OutputFunctionCall(ptr noundef nonnull %28, i64 noundef %29) #14
  br label %31

31:                                               ; preds = %27, %25
  %.0 = phi ptr [ null, %25 ], [ %30, %27 ]
  call void @llvm.lifetime.start.p0(i64 24, ptr nonnull %2) #14
  %32 = and i8 %19, 1
  %.not.i = icmp eq i8 %32, 0
  br i1 %.not.i, label %35, label %33

33:                                               ; preds = %31
  %34 = tail call ptr @pstrdup(ptr noundef nonnull @.str.21) #14
  br label %range_deparse.exit

35:                                               ; preds = %31
  call void @initStringInfo(ptr noundef nonnull %2) #14
  %36 = and i8 %19, 2
  %.not7.i = icmp eq i8 %36, 0
  %37 = select i1 %.not7.i, i8 40, i8 91
  call void @appendStringInfoChar(ptr noundef nonnull %2, i8 noundef signext %37) #14
  %38 = and i8 %19, 40
  %.not8.i = icmp eq i8 %38, 0
  br i1 %.not8.i, label %39, label %41

39:                                               ; preds = %35
  %40 = call fastcc ptr @range_bound_escape(ptr noundef readonly %.013)
  call void @appendStringInfoString(ptr noundef nonnull %2, ptr noundef %40) #14
  br label %41

41:                                               ; preds = %39, %35
  call void @appendStringInfoChar(ptr noundef nonnull %2, i8 noundef signext 44) #14
  %42 = and i8 %19, 80
  %.not9.i = icmp eq i8 %42, 0
  br i1 %.not9.i, label %43, label %45

43:                                               ; preds = %41
  %44 = call fastcc ptr @range_bound_escape(ptr noundef readonly %.0)
  call void @appendStringInfoString(ptr noundef nonnull %2, ptr noundef %44) #14
  br label %45

45:                                               ; preds = %43, %41
  %46 = and i8 %19, 4
  %.not10.i = icmp eq i8 %46, 0
  %47 = select i1 %.not10.i, i8 41, i8 93
  call void @appendStringInfoChar(ptr noundef nonnull %2, i8 noundef signext %47) #14
  %48 = load ptr, ptr %2, align 8
  br label %range_deparse.exit

range_deparse.exit:                               ; preds = %33, %45
  %.0.i = phi ptr [ %34, %33 ], [ %48, %45 ]
  call void @llvm.lifetime.end.p0(i64 24, ptr nonnull %2) #14
  %49 = ptrtoint ptr %.0.i to i64
  call void @llvm.lifetime.end.p0(i64 1, ptr nonnull %5) #14
  call void @llvm.lifetime.end.p0(i64 16, ptr nonnull %4) #14
  call void @llvm.lifetime.end.p0(i64 16, ptr nonnull %3) #14
  ret i64 %49
}